; Function Attrs: cold nounwind optsize uwtable
define internal noundef i32 @svq1_encode_end(ptr noundef %0) #0 {
  %2 = getelementptr inbounds nuw i8, ptr %0, i64 32
  %3 = load ptr, ptr %2, align 8, !tbaa !4
  %4 = getelementptr inbounds nuw i8, ptr %0, i64 824
  %5 = load i64, ptr %4, align 8, !tbaa !84
  %.not = icmp eq i64 %5, 0
  br i1 %.not, label %19, label %6

6:                                                ; preds = %1
  %7 = getelementptr inbounds nuw i8, ptr %3, i64 30016
  %8 = load i64, ptr %7, align 16, !tbaa !145
  %9 = sitofp i64 %8 to double
  %10 = getelementptr inbounds nuw i8, ptr %0, i64 112
  %11 = load i32, ptr %10, align 8, !tbaa !27
  %12 = getelementptr inbounds nuw i8, ptr %0, i64 116
  %13 = load i32, ptr %12, align 4, !tbaa !28
  %14 = mul nsw i32 %13, %11
  %15 = sext i32 %14 to i64
  %16 = mul nsw i64 %5, %15
  %17 = sitofp i64 %16 to double
  %18 = fdiv nsz double %9, %17
  tail call void (ptr, i32, ptr, ...) @av_log(ptr noundef nonnull %0, i32 noundef 48, ptr noundef nonnull @.str.20, double noundef %18) #10
  br label %19

19:                                               ; preds = %6, %1
  %20 = getelementptr inbounds nuw i8, ptr %3, i64 5104
  tail call void @av_freep(ptr noundef nonnull %20) #10
  %21 = getelementptr inbounds nuw i8, ptr %3, i64 29952
  tail call void @av_freep(ptr noundef nonnull %21) #10
  %22 = getelementptr inbounds nuw i8, ptr %3, i64 29960
  tail call void @av_freep(ptr noundef nonnull %22) #10
  %23 = getelementptr inbounds nuw i8, ptr %3, i64 30024
  tail call void @av_freep(ptr noundef nonnull %23) #10
  %24 = getelementptr inbounds nuw i8, ptr %3, i64 6472
  store ptr null, ptr %24, align 8, !tbaa !118
  tail call void @ff_mpv_common_end(ptr noundef %3) #10
  %25 = getelementptr inbounds nuw i8, ptr %3, i64 29968
  %26 = getelementptr inbounds nuw i8, ptr %3, i64 29992
  br label %27

27:                                               ; preds = %19, %27
  %indvars.iv = phi i64 [ 0, %19 ], [ %indvars.iv.next, %27 ]
  %28 = getelementptr inbounds nuw [3 x ptr], ptr %25, i64 0, i64 %indvars.iv
  tail call void @av_freep(ptr noundef nonnull %28) #10
  %29 = getelementptr inbounds nuw [3 x ptr], ptr %26, i64 0, i64 %indvars.iv
  tail call void @av_freep(ptr noundef nonnull %29) #10
  %indvars.iv.next = add nuw nsw i64 %indvars.iv, 1
  %exitcond.not = icmp eq i64 %indvars.iv.next, 3
  br i1 %exitcond.not, label %30, label %27, !llvm.loop !153

30:                                               ; preds = %27
  %31 = getelementptr inbounds nuw i8, ptr %3, i64 8200
  tail call void @av_frame_free(ptr noundef nonnull %31) #10
  %32 = getelementptr inbounds nuw i8, ptr %3, i64 8208
  tail call void @av_frame_free(ptr noundef nonnull %32) #10
  %33 = getelementptr inbounds nuw i8, ptr %3, i64 4888
  tail call void @av_frame_free(ptr noundef nonnull %33) #10
  ret i32 0
}